; Function Attrs: mustprogress nounwind uwtable
define internal fastcc noundef ptr @_ZN4llvh16itanium_demangle2DbIN12_GLOBAL__N_116DefaultAllocatorEE15parseBinaryExprE10StringView(ptr noundef nonnull align 16 dereferenceable(4864) %this, ptr %Kind.coerce0, ptr %Kind.coerce1) unnamed_addr #1 align 2 {
entry:
  %call = tail call fastcc noundef ptr @_ZN4llvh16itanium_demangle2DbIN12_GLOBAL__N_116DefaultAllocatorEE9parseExprEv(ptr noundef nonnull align 16 dereferenceable(4864) %this)
  %cmp = icmp eq ptr %call, null
  br i1 %cmp, label %return, label %if.end

if.end:                                           ; preds = %entry
  %call2 = tail call fastcc noundef ptr @_ZN4llvh16itanium_demangle2DbIN12_GLOBAL__N_116DefaultAllocatorEE9parseExprEv(ptr noundef nonnull align 16 dereferenceable(4864) %this)
  %cmp3 = icmp eq ptr %call2, null
  br i1 %cmp3, label %return, label %if.end5

if.end5:                                          ; preds = %if.end
  %BlockList.i.i.i = getelementptr inbounds i8, ptr %this, i64 4848
  %0 = load ptr, ptr %BlockList.i.i.i, align 16
  %Current.i.i.i = getelementptr inbounds i8, ptr %0, i64 8
  %1 = load i64, ptr %Current.i.i.i, align 8
  %2 = add i64 %1, -4032
  %cmp.i.i.i = icmp ult i64 %2, -4080
  br i1 %cmp.i.i.i, label %if.then.i.i.i, label %_ZN4llvh16itanium_demangle2DbIN12_GLOBAL__N_116DefaultAllocatorEE4makeINS0_10BinaryExprEJRPNS0_4NodeER10StringViewS9_EEES8_DpOT0_.exit

if.then.i.i.i:                                    ; preds = %if.end5
  %call.i6.i.i.i = tail call noalias dereferenceable_or_null(4096) ptr @malloc(i64 noundef 4096) #19
  %cmp.i7.i.i.i = icmp eq ptr %call.i6.i.i.i, null
  br i1 %cmp.i7.i.i.i, label %if.then.i9.i.i.i, label %_ZN12_GLOBAL__N_120BumpPointerAllocator4growEv.exit.i.i.i

if.then.i9.i.i.i:                                 ; preds = %if.then.i.i.i
  tail call void @_ZSt9terminatev() #22
  unreachable

_ZN12_GLOBAL__N_120BumpPointerAllocator4growEv.exit.i.i.i: ; preds = %if.then.i.i.i
  store ptr %0, ptr %call.i6.i.i.i, align 8
  %Current.i8.i.i.i = getelementptr inbounds i8, ptr %call.i6.i.i.i, i64 8
  store i64 0, ptr %Current.i8.i.i.i, align 8
  store ptr %call.i6.i.i.i, ptr %BlockList.i.i.i, align 16
  br label %_ZN4llvh16itanium_demangle2DbIN12_GLOBAL__N_116DefaultAllocatorEE4makeINS0_10BinaryExprEJRPNS0_4NodeER10StringViewS9_EEES8_DpOT0_.exit

_ZN4llvh16itanium_demangle2DbIN12_GLOBAL__N_116DefaultAllocatorEE4makeINS0_10BinaryExprEJRPNS0_4NodeER10StringViewS9_EEES8_DpOT0_.exit: ; preds = %if.end5, %_ZN12_GLOBAL__N_120BumpPointerAllocator4growEv.exit.i.i.i
  %3 = phi i64 [ 0, %_ZN12_GLOBAL__N_120BumpPointerAllocator4growEv.exit.i.i.i ], [ %1, %if.end5 ]
  %4 = phi ptr [ %call.i6.i.i.i, %_ZN12_GLOBAL__N_120BumpPointerAllocator4growEv.exit.i.i.i ], [ %0, %if.end5 ]
  %Current7.i.i.i = getelementptr inbounds i8, ptr %4, i64 8
  %add8.i.i.i = add nsw i64 %3, 48
  store i64 %add8.i.i.i, ptr %Current7.i.i.i, align 8
  %5 = load ptr, ptr %BlockList.i.i.i, align 16
  %add.ptr.i.i.i = getelementptr inbounds i8, ptr %5, i64 16
  %Current11.i.i.i = getelementptr inbounds i8, ptr %5, i64 8
  %6 = load i64, ptr %Current11.i.i.i, align 8
  %add.ptr12.i.i.i = getelementptr inbounds i8, ptr %add.ptr.i.i.i, i64 %6
  %add.ptr13.i.i.i = getelementptr inbounds i8, ptr %add.ptr12.i.i.i, i64 -48
  %K.i.i.i.i = getelementptr inbounds i8, ptr %add.ptr12.i.i.i, i64 -40
  store <4 x i8> <i8 42, i8 1, i8 1, i8 1>, ptr %K.i.i.i.i, align 8
  store ptr getelementptr inbounds ({ [11 x ptr] }, ptr @_ZTVN4llvh16itanium_demangle10BinaryExprE, i64 0, i32 0, i64 2), ptr %add.ptr13.i.i.i, align 8
  %LHS.i.i.i = getelementptr inbounds i8, ptr %add.ptr12.i.i.i, i64 -32
  store ptr %call, ptr %LHS.i.i.i, align 8
  %InfixOperator.i.i.i = getelementptr inbounds i8, ptr %add.ptr12.i.i.i, i64 -24
  store ptr %Kind.coerce0, ptr %InfixOperator.i.i.i, align 8
  %InfixOperator_.sroa.2.0.InfixOperator.sroa_idx.i.i.i = getelementptr inbounds i8, ptr %add.ptr12.i.i.i, i64 -16
  store ptr %Kind.coerce1, ptr %InfixOperator_.sroa.2.0.InfixOperator.sroa_idx.i.i.i, align 8
  %RHS.i.i.i = getelementptr inbounds i8, ptr %add.ptr12.i.i.i, i64 -8
  store ptr %call2, ptr %RHS.i.i.i, align 8
  br label %return

return:                                           ; preds = %if.end, %entry, %_ZN4llvh16itanium_demangle2DbIN12_GLOBAL__N_116DefaultAllocatorEE4makeINS0_10BinaryExprEJRPNS0_4NodeER10StringViewS9_EEES8_DpOT0_.exit
  %retval.0 = phi ptr [ %add.ptr13.i.i.i, %_ZN4llvh16itanium_demangle2DbIN12_GLOBAL__N_116DefaultAllocatorEE4makeINS0_10BinaryExprEJRPNS0_4NodeER10StringViewS9_EEES8_DpOT0_.exit ], [ null, %entry ], [ null, %if.end ]
  ret ptr %retval.0
}